target datalayout = "e-m:e-p270:32:32-p271:32:32-p272:64:64-i64:64-i128:128-f80:128-n8:16:32:64-S128"
target triple = "x86_64-pc-linux-gnu"

%"class.std::__cxx11::basic_string" = type { %"struct.std::__cxx11::basic_string<char>::_Alloc_hider", i64, %union.anon }
%"struct.std::__cxx11::basic_string<char>::_Alloc_hider" = type { ptr }
%union.anon = type { i64, [8 x i8] }
%"class.testing::internal::Mutex" = type { %"class.testing::internal::MutexBase" }
%"class.testing::internal::MutexBase" = type { %union.pthread_mutex_t, i8, i64 }
%union.pthread_mutex_t = type { %struct.__pthread_mutex_s }
%struct.__pthread_mutex_s = type { i32, i32, i32, i32, i32, i16, i16, %struct.__pthread_internal_list }
%struct.__pthread_internal_list = type { ptr, ptr }
%"class.testing::TestResult" = type { %"class.testing::internal::Mutex", %"class.std::vector.43", %"class.std::vector.48", i32, i64, i64 }
%"class.std::vector.43" = type { %"struct.std::_Vector_base.44" }
%"struct.std::_Vector_base.44" = type { %"struct.std::_Vector_base<testing::TestPartResult, std::allocator<testing::TestPartResult>>::_Vector_impl" }
%"struct.std::_Vector_base<testing::TestPartResult, std::allocator<testing::TestPartResult>>::_Vector_impl" = type { %"struct.std::_Vector_base<testing::TestPartResult, std::allocator<testing::TestPartResult>>::_Vector_impl_data" }
%"struct.std::_Vector_base<testing::TestPartResult, std::allocator<testing::TestPartResult>>::_Vector_impl_data" = type { ptr, ptr, ptr }
%"class.std::vector.48" = type { %"struct.std::_Vector_base.49" }
%"struct.std::_Vector_base.49" = type { %"struct.std::_Vector_base<testing::TestProperty, std::allocator<testing::TestProperty>>::_Vector_impl" }
%"struct.std::_Vector_base<testing::TestProperty, std::allocator<testing::TestProperty>>::_Vector_impl" = type { %"struct.std::_Vector_base<testing::TestProperty, std::allocator<testing::TestProperty>>::_Vector_impl_data" }
%"struct.std::_Vector_base<testing::TestProperty, std::allocator<testing::TestProperty>>::_Vector_impl_data" = type { ptr, ptr, ptr }
%"class.testing::TestProperty" = type { %"class.std::__cxx11::basic_string", %"class.std::__cxx11::basic_string" }

@.str.546 = private unnamed_addr constant [74 x i8] c"vector::_M_range_check: __n (which is %zu) >= this->size() (which is %zu)\00", align 1

; Function Attrs: mustprogress nounwind uwtable
define linkonce_odr noundef nonnull align 8 dereferenceable(64) ptr @_ZNKSt6vectorIN7testing12TestPropertyESaIS1_EEixEm(ptr noundef nonnull align 8 dereferenceable(24) %0, i64 noundef %1) #7 comdat align 2 {
  %3 = alloca ptr, align 8
  %4 = alloca i64, align 8
  store ptr %0, ptr %3, align 8, !tbaa !630
  store i64 %1, ptr %4, align 8, !tbaa !181
  %5 = load ptr, ptr %3, align 8
  %6 = getelementptr inbounds nuw %"struct.std::_Vector_base.49", ptr %5, i32 0, i32 0
  %7 = getelementptr inbounds nuw %"struct.std::_Vector_base<testing::TestProperty, std::allocator<testing::TestProperty>>::_Vector_impl_data", ptr %6, i32 0, i32 0
  %8 = load ptr, ptr %7, align 8, !tbaa !632
  %9 = load i64, ptr %4, align 8, !tbaa !181
  %10 = getelementptr inbounds nuw %"class.testing::TestProperty", ptr %8, i64 %9
  ret ptr %10
}

; Function Attrs: mustprogress uwtable
define linkonce_odr void @_ZNKSt6vectorIN7testing12TestPropertyESaIS1_EE14_M_range_checkEm(ptr noundef nonnull align 8 dereferenceable(24) %0, i64 noundef %1) #4 comdat align 2 {
  %3 = alloca ptr, align 8
  %4 = alloca i64, align 8
  store ptr %0, ptr %3, align 8, !tbaa !630
  store i64 %1, ptr %4, align 8, !tbaa !181
  %5 = load ptr, ptr %3, align 8
  %6 = load i64, ptr %4, align 8, !tbaa !181
  %7 = call noundef i64 @_ZNKSt6vectorIN7testing12TestPropertyESaIS1_EE4sizeEv(ptr noundef nonnull align 8 dereferenceable(24) %5) #3
  %8 = icmp uge i64 %6, %7
  br i1 %8, label %9, label %12

9:                                                ; preds = %2
  %10 = load i64, ptr %4, align 8, !tbaa !181
  %11 = call noundef i64 @_ZNKSt6vectorIN7testing12TestPropertyESaIS1_EE4sizeEv(ptr noundef nonnull align 8 dereferenceable(24) %5) #3
  call void (ptr, ...) @_ZSt24__throw_out_of_range_fmtPKcz(ptr noundef @.str.546, i64 noundef %10, i64 noundef %11) #34
  unreachable

12:                                               ; preds = %2
  ret void
}

; Function Attrs: mustprogress nounwind uwtable
define linkonce_odr noundef i64 @_ZNKSt6vectorIN7testing12TestPropertyESaIS1_EE4sizeEv(ptr noundef nonnull align 8 dereferenceable(24) %0) #7 comdat align 2 {
  %2 = alloca ptr, align 8
  store ptr %0, ptr %2, align 8, !tbaa !630
  %3 = load ptr, ptr %2, align 8
  %4 = getelementptr inbounds nuw %"struct.std::_Vector_base.49", ptr %3, i32 0, i32 0
  %5 = getelementptr inbounds nuw %"struct.std::_Vector_base<testing::TestProperty, std::allocator<testing::TestProperty>>::_Vector_impl_data", ptr %4, i32 0, i32 1
  %6 = load ptr, ptr %5, align 8, !tbaa !633
  %7 = getelementptr inbounds nuw %"struct.std::_Vector_base.49", ptr %3, i32 0, i32 0
  %8 = getelementptr inbounds nuw %"struct.std::_Vector_base<testing::TestProperty, std::allocator<testing::TestProperty>>::_Vector_impl_data", ptr %7, i32 0, i32 0
  %9 = load ptr, ptr %8, align 8, !tbaa !632
  %10 = ptrtoint ptr %6 to i64
  %11 = ptrtoint ptr %9 to i64
  %12 = sub i64 %10, %11
  %13 = sdiv exact i64 %12, 64
  ret i64 %13
}

; Function Attrs: mustprogress uwtable
define linkonce_odr noundef nonnull align 8 dereferenceable(64) ptr @_ZNKSt6vectorIN7testing12TestPropertyESaIS1_EE2atEm(ptr noundef nonnull align 8 dereferenceable(24) %0, i64 noundef %1) #4 comdat align 2 {
  %3 = alloca ptr, align 8
  %4 = alloca i64, align 8
  store ptr %0, ptr %3, align 8, !tbaa !630
  store i64 %1, ptr %4, align 8, !tbaa !181
  %5 = load ptr, ptr %3, align 8
  %6 = load i64, ptr %4, align 8, !tbaa !181
  call void @_ZNKSt6vectorIN7testing12TestPropertyESaIS1_EE14_M_range_checkEm(ptr noundef nonnull align 8 dereferenceable(24) %5, i64 noundef %6)
  %7 = load i64, ptr %4, align 8, !tbaa !181
  %8 = call noundef nonnull align 8 dereferenceable(64) ptr @_ZNKSt6vectorIN7testing12TestPropertyESaIS1_EEixEm(ptr noundef nonnull align 8 dereferenceable(24) %5, i64 noundef %7) #3
  ret ptr %8
}

; Function Attrs: mustprogress nounwind uwtable
define noundef i32 @_ZNK7testing10TestResult19test_property_countEv(ptr noundef nonnull align 8 dereferenceable(128) %0) #7 align 2 {
  %2 = alloca ptr, align 8
  store ptr %0, ptr %2, align 8, !tbaa !224
  %3 = load ptr, ptr %2, align 8
  %4 = getelementptr inbounds nuw %"class.testing::TestResult", ptr %3, i32 0, i32 2
  %5 = call noundef i64 @_ZNKSt6vectorIN7testing12TestPropertyESaIS1_EE4sizeEv(ptr noundef nonnull align 8 dereferenceable(24) %4) #3
  %6 = trunc i64 %5 to i32
  ret i32 %6
}

; Function Attrs: mustprogress uwtable
define noundef nonnull align 8 dereferenceable(64) ptr @_ZNK7testing10TestResult15GetTestPropertyEi(ptr noundef nonnull align 8 dereferenceable(128) %0, i32 noundef %1) #4 align 2 {
  %3 = alloca ptr, align 8
  %4 = alloca i32, align 4
  store ptr %0, ptr %3, align 8, !tbaa !224
  store i32 %1, ptr %4, align 4, !tbaa !39
  %5 = load ptr, ptr %3, align 8
  %6 = load i32, ptr %4, align 4, !tbaa !39
  %7 = icmp slt i32 %6, 0
  br i1 %7, label %12, label %8

8:                                                ; preds = %2
  %9 = load i32, ptr %4, align 4, !tbaa !39
  %10 = call noundef i32 @_ZNK7testing10TestResult19test_property_countEv(ptr noundef nonnull align 8 dereferenceable(128) %5)
  %11 = icmp sge i32 %9, %10
  br i1 %11, label %12, label %13

12:                                               ; preds = %8, %2
  call void @_ZN7testing8internal5posix5AbortEv() #34
  unreachable

13:                                               ; preds = %8
  %14 = getelementptr inbounds nuw %"class.testing::TestResult", ptr %5, i32 0, i32 2
  %15 = load i32, ptr %4, align 4, !tbaa !39
  %16 = sext i32 %15 to i64
  %17 = call noundef nonnull align 8 dereferenceable(64) ptr @_ZNKSt6vectorIN7testing12TestPropertyESaIS1_EE2atEm(ptr noundef nonnull align 8 dereferenceable(24) %14, i64 noundef %16)
  ret ptr %17
}